; Function Attrs: null_pointer_is_valid sspstrong uwtable
define internal fastcc i32 @cmd_cnvt_get_units(ptr noundef %0, ptr noundef %1) unnamed_addr #0 {
  %3 = alloca i32, align 4
  call void @llvm.lifetime.start.p0(i64 4, ptr nonnull %3) #5
  %4 = tail call zeroext i8 @tvb_get_uint8(ptr noundef %0, i32 noundef 12)
  %5 = load i32, ptr @hf_gryphon_ldf_get_frame_num_signals, align 4
  %6 = tail call ptr @proto_tree_add_item(ptr noundef %1, i32 noundef %5, ptr noundef %0, i32 noundef 12, i32 noundef 1, i32 noundef 0)
  %7 = zext i8 %4 to i32
  %.not = icmp eq i8 %4, 0
  br i1 %.not, label %._crit_edge, label %.lr.ph

.lr.ph:                                           ; preds = %2, %.lr.ph
  %.015 = phi i32 [ %12, %.lr.ph ], [ 0, %2 ]
  %.01314 = phi i32 [ %11, %.lr.ph ], [ 13, %2 ]
  %8 = load i32, ptr @hf_gryphon_ldf_signal_name, align 4
  %9 = call ptr @proto_tree_add_item_ret_length(ptr noundef %1, i32 noundef %8, ptr noundef %0, i32 noundef %.01314, i32 noundef -1, i32 noundef 0, ptr noundef nonnull %3)
  %10 = load i32, ptr %3, align 4
  %11 = add i32 %10, %.01314
  %12 = add nuw nsw i32 %.015, 1
  %exitcond.not = icmp eq i32 %12, %7
  br i1 %exitcond.not, label %._crit_edge, label %.lr.ph, !llvm.loop !14

._crit_edge:                                      ; preds = %.lr.ph, %2
  %.013.lcssa = phi i32 [ 13, %2 ], [ %11, %.lr.ph ]
  call void @llvm.lifetime.end.p0(i64 4, ptr nonnull %3) #5
  ret i32 %.013.lcssa
}